; Function Attrs: mustprogress nounwind uwtable
define void @_ZN8proxygen11HTTPSession19notifyPendingEgressEv(ptr noundef nonnull align 8 dereferenceable(2504) %this) unnamed_addr #4 align 2 personality ptr @__gxx_personality_v0 {
entry:
  invoke void @_ZN8proxygen11HTTPSession13scheduleWriteEv(ptr noundef nonnull align 8 dereferenceable(2504) %this)
          to label %invoke.cont unwind label %terminate.lpad

invoke.cont:                                      ; preds = %entry
  ret void

terminate.lpad:                                   ; preds = %entry
  %0 = landingpad { ptr, i32 }
          catch ptr null
  %1 = extractvalue { ptr, i32 } %0, 0
  tail call void @__clang_call_terminate(ptr %1) #40
  unreachable
}